; ModuleID = '10/757.c'
source_filename = "10/757.c"
target datalayout = "e-m:e-p270:32:32-p271:32:32-p272:64:64-i64:64-f80:128-n8:16:32:64-S128"
target triple = "x86_64-pc-linux-gnu"

@.str = private unnamed_addr constant [3 x i8] c"%d\00", align 1

; Function Attrs: noinline nounwind uwtable
define dso_local i32 @com(i8* %0, i8* %1) #0 {
  %3 = alloca i8*, align 8
  %4 = alloca i8*, align 8
  store i8* %0, i8** %3, align 8
  store i8* %1, i8** %4, align 8
  %5 = load i8*, i8** %3, align 8
  %6 = bitcast i8* %5 to i32*
  %7 = load i32, i32* %6, align 4
  %8 = load i8*, i8** %4, align 8
  %9 = bitcast i8* %8 to i32*
  %10 = load i32, i32* %9, align 4
  %11 = sub nsw i32 %7, %10
  ret i32 %11
}

; Function Attrs: noinline nounwind uwtable
define dso_local i32 @main() #0 {
  %1 = alloca i32, align 4
  %2 = alloca i32, align 4
  %3 = alloca i32, align 4
  %4 = alloca i32, align 4
  %5 = alloca [25 x i32], align 16
  %6 = alloca i32, align 4
  %7 = alloca [25 x i32], align 16
  %8 = alloca i32, align 4
  store i32 0, i32* %1, align 4
  %9 = call i32 (i8*, ...) @__isoc99_scanf(i8* getelementptr inbounds ([3 x i8], [3 x i8]* @.str, i64 0, i64 0), i32* %2)
  store i32 0, i32* %8, align 4
  br label %10

10:                                               ; preds = %19, %0
  %11 = load i32, i32* %8, align 4
  %12 = load i32, i32* %2, align 4
  %13 = icmp slt i32 %11, %12
  br i1 %13, label %14, label %22

14:                                               ; preds = %10
  %15 = load i32, i32* %8, align 4
  %16 = sext i32 %15 to i64
  %17 = getelementptr inbounds [25 x i32], [25 x i32]* %7, i64 0, i64 %16
  %18 = call i32 (i8*, ...) @__isoc99_scanf(i8* getelementptr inbounds ([3 x i8], [3 x i8]* @.str, i64 0, i64 0), i32* %17)
  br label %19

19:                                               ; preds = %14
  %20 = load i32, i32* %8, align 4
  %21 = add nsw i32 %20, 1
  store i32 %21, i32* %8, align 4
  br label %10

22:                                               ; preds = %10
  %23 = load i32, i32* %2, align 4
  %24 = sub nsw i32 %23, 1
  %25 = sext i32 %24 to i64
  %26 = getelementptr inbounds [25 x i32], [25 x i32]* %5, i64 0, i64 %25
  store i32 1, i32* %26, align 4
  %27 = load i32, i32* %2, align 4
  %28 = sub nsw i32 %27, 2
  store i32 %28, i32* %8, align 4
  br label %29

29:                                               ; preds = %73, %22
  %30 = load i32, i32* %8, align 4
  %31 = icmp sge i32 %30, 0
  br i1 %31, label %32, label %76

32:                                               ; preds = %29
  store i32 0, i32* %6, align 4
  %33 = load i32, i32* %2, align 4
  %34 = sub nsw i32 %33, 1
  store i32 %34, i32* %4, align 4
  br label %35

35:                                               ; preds = %64, %32
  %36 = load i32, i32* %4, align 4
  %37 = load i32, i32* %8, align 4
  %38 = add nsw i32 %37, 1
  %39 = icmp sge i32 %36, %38
  br i1 %39, label %40, label %67

40:                                               ; preds = %35
  %41 = load i32, i32* %4, align 4
  %42 = sext i32 %41 to i64
  %43 = getelementptr inbounds [25 x i32], [25 x i32]* %7, i64 0, i64 %42
  %44 = load i32, i32* %43, align 4
  %45 = load i32, i32* %8, align 4
  %46 = sext i32 %45 to i64
  %47 = getelementptr inbounds [25 x i32], [25 x i32]* %7, i64 0, i64 %46
  %48 = load i32, i32* %47, align 4
  %49 = icmp sle i32 %44, %48
  br i1 %49, label %50, label %63

50:                                               ; preds = %40
  %51 = load i32, i32* %4, align 4
  %52 = sext i32 %51 to i64
  %53 = getelementptr inbounds [25 x i32], [25 x i32]* %5, i64 0, i64 %52
  %54 = load i32, i32* %53, align 4
  %55 = load i32, i32* %6, align 4
  %56 = icmp sge i32 %54, %55
  br i1 %56, label %57, label %62

57:                                               ; preds = %50
  %58 = load i32, i32* %4, align 4
  %59 = sext i32 %58 to i64
  %60 = getelementptr inbounds [25 x i32], [25 x i32]* %5, i64 0, i64 %59
  %61 = load i32, i32* %60, align 4
  store i32 %61, i32* %6, align 4
  br label %62

62:                                               ; preds = %57, %50
  br label %63

63:                                               ; preds = %62, %40
  br label %64

64:                                               ; preds = %63
  %65 = load i32, i32* %4, align 4
  %66 = add nsw i32 %65, -1
  store i32 %66, i32* %4, align 4
  br label %35

67:                                               ; preds = %35
  %68 = load i32, i32* %6, align 4
  %69 = add nsw i32 %68, 1
  %70 = load i32, i32* %8, align 4
  %71 = sext i32 %70 to i64
  %72 = getelementptr inbounds [25 x i32], [25 x i32]* %5, i64 0, i64 %71
  store i32 %69, i32* %72, align 4
  br label %73

73:                                               ; preds = %67
  %74 = load i32, i32* %8, align 4
  %75 = add nsw i32 %74, -1
  store i32 %75, i32* %8, align 4
  br label %29

76:                                               ; preds = %29
  %77 = getelementptr inbounds [25 x i32], [25 x i32]* %5, i64 0, i64 0
  %78 = bitcast i32* %77 to i8*
  %79 = load i32, i32* %2, align 4
  %80 = sext i32 %79 to i64
  call void @qsort(i8* %78, i64 %80, i64 4, i32 (i8*, i8*)* @com)
  %81 = load i32, i32* %2, align 4
  %82 = sub nsw i32 %81, 1
  %83 = sext i32 %82 to i64
  %84 = getelementptr inbounds [25 x i32], [25 x i32]* %5, i64 0, i64 %83
  %85 = load i32, i32* %84, align 4
  %86 = call i32 (i8*, ...) @printf(i8* getelementptr inbounds ([3 x i8], [3 x i8]* @.str, i64 0, i64 0), i32 %85)
  %87 = call i32 @getchar()
  %88 = call i32 @getchar()
  %89 = call i32 @getchar()
  %90 = call i32 @getchar()
  %91 = call i32 @getchar()
  %92 = call i32 @getchar()
  %93 = load i32, i32* %1, align 4
  ret i32 %93
}

declare dso_local i32 @__isoc99_scanf(i8*, ...) #1

declare dso_local void @qsort(i8*, i64, i64, i32 (i8*, i8*)*) #1

declare dso_local i32 @printf(i8*, ...) #1

declare dso_local i32 @getchar() #1


!llvm.module.flags = !{!0}
!llvm.ident = !{!1}

!0 = !{i32 1, !"wchar_size", i32 4}
!1 = !{!"clang version 10.0.0-4ubuntu1 "}
