; ModuleID = 'source-C-CXX/9/757.c'
source_filename = "source-C-CXX/9/757.c"
target datalayout = "e-m:e-p270:32:32-p271:32:32-p272:64:64-i64:64-f80:128-n8:16:32:64-S128"
target triple = "x86_64-pc-linux-gnu"

%struct._IO_FILE = type { i32, i8*, i8*, i8*, i8*, i8*, i8*, i8*, i8*, i8*, i8*, i8*, %struct._IO_marker*, %struct._IO_FILE*, i32, i32, i64, i16, i8, [1 x i8], i8*, i64, %struct._IO_codecvt*, %struct._IO_wide_data*, %struct._IO_FILE*, i8*, i64, i32, [20 x i8] }
%struct._IO_marker = type opaque
%struct._IO_codecvt = type opaque
%struct._IO_wide_data = type opaque

@.str = private unnamed_addr constant [3 x i8] c"%d\00", align 1
@stdin = external local_unnamed_addr global %struct._IO_FILE*, align 8

; Function Attrs: mustprogress nofree norecurse nosync nounwind readonly sspstrong uwtable willreturn
define dso_local i32 @com(i8* nocapture readonly %0, i8* nocapture readonly %1) #0 {
  %3 = bitcast i8* %0 to i32*
  %4 = load i32, i32* %3, align 4, !tbaa !5
  %5 = bitcast i8* %1 to i32*
  %6 = load i32, i32* %5, align 4, !tbaa !5
  %7 = sub nsw i32 %4, %6
  ret i32 %7
}

; Function Attrs: nofree nounwind sspstrong uwtable
define dso_local i32 @main() local_unnamed_addr #1 {
  %1 = alloca i32, align 4
  %2 = alloca [25 x i32], align 16
  %3 = alloca [25 x i32], align 16
  %4 = bitcast i32* %1 to i8*
  call void @llvm.lifetime.start.p0i8(i64 4, i8* nonnull %4) #5
  %5 = bitcast [25 x i32]* %2 to i8*
  call void @llvm.lifetime.start.p0i8(i64 100, i8* nonnull %5) #5
  %6 = call i32 (i8*, ...) @__isoc99_scanf(i8* getelementptr inbounds ([3 x i8], [3 x i8]* @.str, i64 0, i64 0), i32* nonnull %1)
  %7 = bitcast [25 x i32]* %3 to i8*
  call void @llvm.lifetime.start.p0i8(i64 100, i8* nonnull %7) #5
  %8 = load i32, i32* %1, align 4, !tbaa !5
  %9 = icmp sgt i32 %8, 0
  br i1 %9, label %14, label %10

10:                                               ; preds = %0
  %11 = add nsw i32 %8, -1
  %12 = sext i32 %11 to i64
  %13 = getelementptr inbounds [25 x i32], [25 x i32]* %2, i64 0, i64 %12
  store i32 1, i32* %13, align 4, !tbaa !5
  br label %27

14:                                               ; preds = %0, %14
  %15 = phi i64 [ %18, %14 ], [ 0, %0 ]
  %16 = getelementptr inbounds [25 x i32], [25 x i32]* %3, i64 0, i64 %15
  %17 = call i32 (i8*, ...) @__isoc99_scanf(i8* getelementptr inbounds ([3 x i8], [3 x i8]* @.str, i64 0, i64 0), i32* nonnull %16)
  %18 = add nuw nsw i64 %15, 1
  %19 = load i32, i32* %1, align 4, !tbaa !5
  %20 = sext i32 %19 to i64
  %21 = icmp slt i64 %18, %20
  br i1 %21, label %14, label %22, !llvm.loop !9

22:                                               ; preds = %14
  %23 = add nsw i32 %19, -1
  %24 = sext i32 %23 to i64
  %25 = getelementptr inbounds [25 x i32], [25 x i32]* %2, i64 0, i64 %24
  store i32 1, i32* %25, align 4, !tbaa !5
  %26 = icmp sgt i32 %19, 1
  br i1 %26, label %30, label %27

27:                                               ; preds = %10, %22
  %28 = phi i32 [ %8, %10 ], [ %19, %22 ]
  %29 = sext i32 %28 to i64
  br label %62

30:                                               ; preds = %22
  %31 = zext i32 %19 to i64
  %32 = add nsw i32 %19, -2
  %33 = zext i32 %32 to i64
  br label %34

34:                                               ; preds = %30, %56
  %35 = phi i64 [ %33, %30 ], [ %60, %56 ]
  %36 = add nuw nsw i64 %35, 1
  %37 = icmp slt i64 %36, %31
  br i1 %37, label %38, label %56

38:                                               ; preds = %34
  %39 = getelementptr inbounds [25 x i32], [25 x i32]* %3, i64 0, i64 %35
  %40 = load i32, i32* %39, align 4, !tbaa !5
  br label %41

41:                                               ; preds = %38, %53
  %42 = phi i64 [ %31, %38 ], [ %44, %53 ]
  %43 = phi i32 [ 0, %38 ], [ %54, %53 ]
  %44 = add nsw i64 %42, -1
  %45 = getelementptr inbounds [25 x i32], [25 x i32]* %3, i64 0, i64 %44
  %46 = load i32, i32* %45, align 4, !tbaa !5
  %47 = icmp sgt i32 %46, %40
  br i1 %47, label %53, label %48

48:                                               ; preds = %41
  %49 = getelementptr inbounds [25 x i32], [25 x i32]* %2, i64 0, i64 %44
  %50 = load i32, i32* %49, align 4, !tbaa !5
  %51 = icmp slt i32 %50, %43
  %52 = select i1 %51, i32 %43, i32 %50
  br label %53

53:                                               ; preds = %48, %41
  %54 = phi i32 [ %43, %41 ], [ %52, %48 ]
  %55 = icmp sgt i64 %44, %36
  br i1 %55, label %41, label %56, !llvm.loop !11

56:                                               ; preds = %53, %34
  %57 = phi i32 [ 0, %34 ], [ %54, %53 ]
  %58 = add nsw i32 %57, 1
  %59 = getelementptr inbounds [25 x i32], [25 x i32]* %2, i64 0, i64 %35
  store i32 %58, i32* %59, align 4, !tbaa !5
  %60 = add nsw i64 %35, -1
  %61 = icmp sgt i64 %35, 0
  br i1 %61, label %34, label %62, !llvm.loop !12

62:                                               ; preds = %56, %27
  %63 = phi i64 [ %29, %27 ], [ %31, %56 ]
  call void @qsort(i8* nonnull %5, i64 %63, i64 4, i32 (i8*, i8*)* nonnull @com) #5
  %64 = load i32, i32* %1, align 4, !tbaa !5
  %65 = add nsw i32 %64, -1
  %66 = sext i32 %65 to i64
  %67 = getelementptr inbounds [25 x i32], [25 x i32]* %2, i64 0, i64 %66
  %68 = load i32, i32* %67, align 4, !tbaa !5
  %69 = call i32 (i8*, ...) @printf(i8* nonnull dereferenceable(1) getelementptr inbounds ([3 x i8], [3 x i8]* @.str, i64 0, i64 0), i32 %68)
  %70 = load %struct._IO_FILE*, %struct._IO_FILE** @stdin, align 8, !tbaa !13
  %71 = call i32 @getc(%struct._IO_FILE* %70) #5
  %72 = load %struct._IO_FILE*, %struct._IO_FILE** @stdin, align 8, !tbaa !13
  %73 = call i32 @getc(%struct._IO_FILE* %72) #5
  %74 = load %struct._IO_FILE*, %struct._IO_FILE** @stdin, align 8, !tbaa !13
  %75 = call i32 @getc(%struct._IO_FILE* %74) #5
  %76 = load %struct._IO_FILE*, %struct._IO_FILE** @stdin, align 8, !tbaa !13
  %77 = call i32 @getc(%struct._IO_FILE* %76) #5
  %78 = load %struct._IO_FILE*, %struct._IO_FILE** @stdin, align 8, !tbaa !13
  %79 = call i32 @getc(%struct._IO_FILE* %78) #5
  %80 = load %struct._IO_FILE*, %struct._IO_FILE** @stdin, align 8, !tbaa !13
  %81 = call i32 @getc(%struct._IO_FILE* %80) #5
  call void @llvm.lifetime.end.p0i8(i64 100, i8* nonnull %7) #5
  call void @llvm.lifetime.end.p0i8(i64 100, i8* nonnull %5) #5
  call void @llvm.lifetime.end.p0i8(i64 4, i8* nonnull %4) #5
  ret i32 0
}

; Function Attrs: argmemonly mustprogress nofree nosync nounwind willreturn
declare void @llvm.lifetime.start.p0i8(i64 immarg, i8* nocapture) #2

; Function Attrs: nofree nounwind
declare noundef i32 @__isoc99_scanf(i8* nocapture noundef readonly, ...) local_unnamed_addr #3

; Function Attrs: nofree
declare void @qsort(i8* noundef, i64 noundef, i64 noundef, i32 (i8*, i8*)* nocapture noundef) local_unnamed_addr #4

; Function Attrs: nofree nounwind
declare noundef i32 @printf(i8* nocapture noundef readonly, ...) local_unnamed_addr #3

; Function Attrs: argmemonly mustprogress nofree nosync nounwind willreturn
declare void @llvm.lifetime.end.p0i8(i64 immarg, i8* nocapture) #2

; Function Attrs: nofree nounwind
declare noundef i32 @getc(%struct._IO_FILE* nocapture noundef) local_unnamed_addr #3


!llvm.module.flags = !{!0, !1, !2, !3}
!llvm.ident = !{!4}

!0 = !{i32 1, !"wchar_size", i32 4}
!1 = !{i32 7, !"PIC Level", i32 2}
!2 = !{i32 7, !"PIE Level", i32 2}
!3 = !{i32 7, !"uwtable", i32 1}
!4 = !{!"clang version 13.0.0"}
!5 = !{!6, !6, i64 0}
!6 = !{!"int", !7, i64 0}
!7 = !{!"omnipotent char", !8, i64 0}
!8 = !{!"Simple C/C++ TBAA"}
!9 = distinct !{!9, !10}
!10 = !{!"llvm.loop.mustprogress"}
!11 = distinct !{!11, !10}
!12 = distinct !{!12, !10}
!13 = !{!14, !14, i64 0}
!14 = !{!"any pointer", !7, i64 0}
